target datalayout = "e-m:e-p270:32:32-p271:32:32-p272:64:64-i64:64-i128:128-f80:128-n8:16:32:64-S128"
target triple = "x86_64-pc-linux-gnu"

%struct.timeval = type { i64, i64 }

@plugin_type = dso_local constant [9 x i8] c"gpu/nvml\00", align 1
@.str.106 = private unnamed_addr constant [67 x i8] c"%s: %s: nvmlDeviceGetSupportedMemoryClocks() took %ld microseconds\00", align 1
@__func__._nvml_get_mem_freqs = private unnamed_addr constant [20 x i8] c"_nvml_get_mem_freqs\00", align 1
@.str.107 = private unnamed_addr constant [64 x i8] c"%s: Failed to get supported memory frequencies for the GPU : %s\00", align 1
@.str.108 = private unnamed_addr constant [56 x i8] c"%s: mem frequencies are not stored in descending order!\00", align 1

; Function Attrs: nounwind uwtable
define internal zeroext i1 @_nvml_get_mem_freqs(ptr noundef %0, ptr noundef %1, ptr noundef %2) #0 {
  %4 = alloca i1, align 1
  %5 = alloca ptr, align 8
  %6 = alloca ptr, align 8
  %7 = alloca ptr, align 8
  %8 = alloca i32, align 4
  %9 = alloca %struct.timeval, align 8
  %10 = alloca %struct.timeval, align 8
  %11 = alloca [20 x i8], align 16
  %12 = alloca i64, align 8
  %13 = alloca ptr, align 8
  %14 = alloca ptr, align 8
  %15 = alloca i32, align 4
  store ptr %0, ptr %5, align 8
  store ptr %1, ptr %6, align 8
  store ptr %2, ptr %7, align 8
  call void @llvm.lifetime.start.p0(i64 4, ptr %8) #7
  call void @llvm.lifetime.start.p0(i64 16, ptr %9) #7
  call void @llvm.lifetime.start.p0(i64 16, ptr %10) #7
  call void @llvm.lifetime.start.p0(i64 20, ptr %11) #7
  call void @llvm.memset.p0.i64(ptr align 16 %11, i8 0, i64 20, i1 false)
  call void @llvm.lifetime.start.p0(i64 8, ptr %12) #7
  %16 = call i32 @gettimeofday(ptr noundef %9, ptr noundef null) #7
  call void @llvm.lifetime.start.p0(i64 8, ptr %13) #7
  %17 = load ptr, ptr %7, align 8
  store ptr %17, ptr %13, align 8
  call void @llvm.lifetime.start.p0(i64 8, ptr %14) #7
  %18 = load ptr, ptr %6, align 8
  store ptr %18, ptr %14, align 8
  %19 = load ptr, ptr %5, align 8
  %20 = load ptr, ptr %19, align 8
  %21 = load ptr, ptr %14, align 8
  %22 = load ptr, ptr %13, align 8
  %23 = call i32 @nvmlDeviceGetSupportedMemoryClocks(ptr noundef %20, ptr noundef %21, ptr noundef %22)
  store i32 %23, ptr %8, align 4
  br label %24

24:                                               ; preds = %3
  %25 = call i32 @gettimeofday(ptr noundef %10, ptr noundef null) #7
  %26 = getelementptr inbounds [20 x i8], ptr %11, i64 0, i64 0
  call void @slurm_diff_tv_str(ptr noundef %9, ptr noundef %10, ptr noundef %26, i32 noundef 20, ptr noundef null, i64 noundef 0, ptr noundef %12)
  br label %27

27:                                               ; preds = %24
  br label %28

28:                                               ; preds = %27
  br label %29

29:                                               ; preds = %28
  br label %30

30:                                               ; preds = %29
  %31 = call i32 @slurm_get_log_level()
  %32 = icmp sge i32 %31, 7
  br i1 %32, label %33, label %35

33:                                               ; preds = %30
  %34 = load i64, ptr %12, align 8
  call void (i32, ptr, ...) @slurm_log_var(i32 noundef 7, ptr noundef @.str.106, ptr noundef @plugin_type, ptr noundef @__func__._nvml_get_mem_freqs, i64 noundef %34)
  br label %35

35:                                               ; preds = %33, %30
  br label %36

36:                                               ; preds = %35
  br label %37

37:                                               ; preds = %36
  br label %38

38:                                               ; preds = %37
  br label %39

39:                                               ; preds = %38
  %40 = load i32, ptr %8, align 4
  %41 = icmp ne i32 %40, 0
  br i1 %41, label %42, label %46

42:                                               ; preds = %39
  %43 = load i32, ptr %8, align 4
  %44 = call ptr @nvmlErrorString(i32 noundef %43)
  %45 = call i32 (ptr, ...) @slurm_error(ptr noundef @.str.107, ptr noundef @__func__._nvml_get_mem_freqs, ptr noundef %44)
  store i1 false, ptr %4, align 1
  store i32 1, ptr %15, align 4
  br label %69

46:                                               ; preds = %39
  %47 = load ptr, ptr %7, align 8
  %48 = load ptr, ptr %6, align 8
  %49 = load i32, ptr %48, align 4
  %50 = zext i32 %49 to i64
  call void @qsort(ptr noundef %47, i64 noundef %50, i64 noundef 4, ptr noundef @slurm_sort_uint32_list_desc)
  %51 = load ptr, ptr %6, align 8
  %52 = load i32, ptr %51, align 4
  %53 = icmp ugt i32 %52, 1
  br i1 %53, label %54, label %68

54:                                               ; preds = %46
  %55 = load ptr, ptr %7, align 8
  %56 = getelementptr inbounds i32, ptr %55, i64 0
  %57 = load i32, ptr %56, align 4
  %58 = load ptr, ptr %7, align 8
  %59 = load ptr, ptr %6, align 8
  %60 = load i32, ptr %59, align 4
  %61 = sub i32 %60, 1
  %62 = zext i32 %61 to i64
  %63 = getelementptr inbounds nuw i32, ptr %58, i64 %62
  %64 = load i32, ptr %63, align 4
  %65 = icmp ule i32 %57, %64
  br i1 %65, label %66, label %68

66:                                               ; preds = %54
  %67 = call i32 (ptr, ...) @slurm_error(ptr noundef @.str.108, ptr noundef @__func__._nvml_get_mem_freqs)
  store i1 false, ptr %4, align 1
  store i32 1, ptr %15, align 4
  br label %69

68:                                               ; preds = %54, %46
  store i1 true, ptr %4, align 1
  store i32 1, ptr %15, align 4
  br label %69

69:                                               ; preds = %68, %66, %42
  call void @llvm.lifetime.end.p0(i64 8, ptr %14) #7
  call void @llvm.lifetime.end.p0(i64 8, ptr %13) #7
  call void @llvm.lifetime.end.p0(i64 8, ptr %12) #7
  call void @llvm.lifetime.end.p0(i64 20, ptr %11) #7
  call void @llvm.lifetime.end.p0(i64 16, ptr %10) #7
  call void @llvm.lifetime.end.p0(i64 16, ptr %9) #7
  call void @llvm.lifetime.end.p0(i64 4, ptr %8) #7
  %70 = load i1, ptr %4, align 1
  ret i1 %70
}