; Function Attrs: nounwind uwtable
define internal fastcc noundef zeroext i1 @_nvml_get_mem_freqs(ptr noundef nonnull readonly captures(none) %0, ptr noundef nonnull %1, ptr noundef nonnull %2) unnamed_addr #0 {
  %4 = alloca %struct.timeval, align 8
  %5 = alloca %struct.timeval, align 8
  %6 = alloca [20 x i8], align 16
  %7 = alloca i64, align 8
  call void @llvm.lifetime.start.p0(i64 16, ptr nonnull %4) #12
  call void @llvm.lifetime.start.p0(i64 16, ptr nonnull %5) #12
  call void @llvm.lifetime.start.p0(i64 20, ptr nonnull %6) #12
  call void @llvm.memset.p0.i64(ptr noundef nonnull align 16 dereferenceable(20) %6, i8 0, i64 20, i1 false)
  call void @llvm.lifetime.start.p0(i64 8, ptr nonnull %7) #12
  %8 = call i32 @gettimeofday(ptr noundef nonnull %4, ptr noundef null) #12
  %9 = load ptr, ptr %0, align 8
  %10 = tail call i32 @nvmlDeviceGetSupportedMemoryClocks(ptr noundef %9, ptr noundef nonnull %1, ptr noundef nonnull %2) #12
  %11 = call i32 @gettimeofday(ptr noundef nonnull %5, ptr noundef null) #12
  call void @slurm_diff_tv_str(ptr noundef nonnull %4, ptr noundef nonnull %5, ptr noundef nonnull %6, i32 noundef 20, ptr noundef null, i64 noundef 0, ptr noundef nonnull %7) #12
  %12 = call i32 @slurm_get_log_level() #12
  %13 = icmp sgt i32 %12, 6
  br i1 %13, label %14, label %16

14:                                               ; preds = %3
  %15 = load i64, ptr %7, align 8
  call void (i32, ptr, ...) @slurm_log_var(i32 noundef 7, ptr noundef nonnull @.str.106, ptr noundef nonnull @plugin_type, ptr noundef nonnull @__func__._nvml_get_mem_freqs, i64 noundef %15) #12
  br label %16

16:                                               ; preds = %14, %3
  %.not = icmp eq i32 %10, 0
  br i1 %.not, label %20, label %17

17:                                               ; preds = %16
  %18 = call ptr @nvmlErrorString(i32 noundef %10) #12
  %19 = call i32 (ptr, ...) @slurm_error(ptr noundef nonnull @.str.107, ptr noundef nonnull @__func__._nvml_get_mem_freqs, ptr noundef %18) #12
  br label %33

20:                                               ; preds = %16
  %21 = load i32, ptr %1, align 4
  %22 = zext i32 %21 to i64
  call void @qsort(ptr noundef nonnull %2, i64 noundef %22, i64 noundef 4, ptr noundef nonnull @slurm_sort_uint32_list_desc) #12
  %23 = load i32, ptr %1, align 4
  %24 = icmp ugt i32 %23, 1
  br i1 %24, label %25, label %33

25:                                               ; preds = %20
  %26 = load i32, ptr %2, align 4
  %27 = add i32 %23, -1
  %28 = zext i32 %27 to i64
  %29 = getelementptr inbounds nuw i32, ptr %2, i64 %28
  %30 = load i32, ptr %29, align 4
  %.not15 = icmp ugt i32 %26, %30
  br i1 %.not15, label %33, label %31

31:                                               ; preds = %25
  %32 = call i32 (ptr, ...) @slurm_error(ptr noundef nonnull @.str.108, ptr noundef nonnull @__func__._nvml_get_mem_freqs) #12
  br label %33

33:                                               ; preds = %20, %25, %31, %17
  %.0 = phi i1 [ false, %17 ], [ false, %31 ], [ true, %25 ], [ true, %20 ]
  call void @llvm.lifetime.end.p0(i64 8, ptr nonnull %7) #12
  call void @llvm.lifetime.end.p0(i64 20, ptr nonnull %6) #12
  call void @llvm.lifetime.end.p0(i64 16, ptr nonnull %5) #12
  call void @llvm.lifetime.end.p0(i64 16, ptr nonnull %4) #12
  ret i1 %.0
}